target datalayout = "e-m:e-p270:32:32-p271:32:32-p272:64:64-i64:64-i128:128-f80:128-n8:16:32:64-S128"
target triple = "x86_64-pc-linux-gnu"

%struct.Ssw_RarPars_t_ = type { i32, i32, i32, i32, i32, i32, i32, i32, i32, i32, i32, i32, i32, i32, i32, i32, i32, i32, i32, ptr, ptr }
%struct.Ssw_RarMan_t_ = type { ptr, i32, i32, ptr, ptr, ptr, ptr, ptr, ptr, ptr, ptr, ptr, ptr, i32, i32, ptr }
%struct.Aig_Obj_t_ = type { %union.anon, ptr, ptr, i64, i32, i32, %union.anon.0 }
%union.anon = type { ptr }
%union.anon.0 = type { ptr }

; Function Attrs: inlinehint nounwind uwtable
define internal ptr @Ssw_RarObjSim(ptr noundef %0, i32 noundef %1) #4 {
  %3 = alloca ptr, align 8
  %4 = alloca i32, align 4
  store ptr %0, ptr %3, align 8, !tbaa !27
  store i32 %1, ptr %4, align 4, !tbaa !24
  %5 = load ptr, ptr %3, align 8, !tbaa !27
  %6 = getelementptr inbounds nuw %struct.Ssw_RarMan_t_, ptr %5, i32 0, i32 6
  %7 = load ptr, ptr %6, align 8, !tbaa !59
  %8 = load ptr, ptr %3, align 8, !tbaa !27
  %9 = getelementptr inbounds nuw %struct.Ssw_RarMan_t_, ptr %8, i32 0, i32 0
  %10 = load ptr, ptr %9, align 8, !tbaa !49
  %11 = getelementptr inbounds nuw %struct.Ssw_RarPars_t_, ptr %10, i32 0, i32 1
  %12 = load i32, ptr %11, align 4, !tbaa !12
  %13 = load i32, ptr %4, align 4, !tbaa !24
  %14 = mul nsw i32 %12, %13
  %15 = sext i32 %14 to i64
  %16 = getelementptr inbounds i64, ptr %7, i64 %15
  ret ptr %16
}

; Function Attrs: nounwind uwtable
define i32 @Ssw_RarManObjsAreEqual(ptr noundef %0, ptr noundef %1, ptr noundef %2) #0 {
  %4 = alloca i32, align 4
  %5 = alloca ptr, align 8
  %6 = alloca ptr, align 8
  %7 = alloca ptr, align 8
  %8 = alloca ptr, align 8
  %9 = alloca ptr, align 8
  %10 = alloca ptr, align 8
  %11 = alloca i64, align 8
  %12 = alloca i32, align 4
  %13 = alloca i32, align 4
  store ptr %0, ptr %5, align 8, !tbaa !58
  store ptr %1, ptr %6, align 8, !tbaa !47
  store ptr %2, ptr %7, align 8, !tbaa !47
  call void @llvm.lifetime.start.p0(i64 8, ptr %8) #11
  %14 = load ptr, ptr %5, align 8, !tbaa !58
  store ptr %14, ptr %8, align 8, !tbaa !27
  call void @llvm.lifetime.start.p0(i64 8, ptr %9) #11
  %15 = load ptr, ptr %8, align 8, !tbaa !27
  %16 = load ptr, ptr %6, align 8, !tbaa !47
  %17 = getelementptr inbounds nuw %struct.Aig_Obj_t_, ptr %16, i32 0, i32 5
  %18 = load i32, ptr %17, align 4, !tbaa !60
  %19 = call ptr @Ssw_RarObjSim(ptr noundef %15, i32 noundef %18)
  store ptr %19, ptr %9, align 8, !tbaa !48
  call void @llvm.lifetime.start.p0(i64 8, ptr %10) #11
  %20 = load ptr, ptr %8, align 8, !tbaa !27
  %21 = load ptr, ptr %7, align 8, !tbaa !47
  %22 = getelementptr inbounds nuw %struct.Aig_Obj_t_, ptr %21, i32 0, i32 5
  %23 = load i32, ptr %22, align 4, !tbaa !60
  %24 = call ptr @Ssw_RarObjSim(ptr noundef %20, i32 noundef %23)
  store ptr %24, ptr %10, align 8, !tbaa !48
  call void @llvm.lifetime.start.p0(i64 8, ptr %11) #11
  %25 = load ptr, ptr %6, align 8, !tbaa !47
  %26 = getelementptr inbounds nuw %struct.Aig_Obj_t_, ptr %25, i32 0, i32 3
  %27 = load i64, ptr %26, align 8
  %28 = lshr i64 %27, 3
  %29 = and i64 %28, 1
  %30 = trunc i64 %29 to i32
  %31 = load ptr, ptr %7, align 8, !tbaa !47
  %32 = getelementptr inbounds nuw %struct.Aig_Obj_t_, ptr %31, i32 0, i32 3
  %33 = load i64, ptr %32, align 8
  %34 = lshr i64 %33, 3
  %35 = and i64 %34, 1
  %36 = trunc i64 %35 to i32
  %37 = icmp ne i32 %30, %36
  %38 = select i1 %37, i64 -1, i64 0
  store i64 %38, ptr %11, align 8, !tbaa !50
  call void @llvm.lifetime.start.p0(i64 4, ptr %12) #11
  store i32 0, ptr %12, align 4, !tbaa !24
  br label %39

39:                                               ; preds = %64, %3
  %40 = load i32, ptr %12, align 4, !tbaa !24
  %41 = load ptr, ptr %8, align 8, !tbaa !27
  %42 = getelementptr inbounds nuw %struct.Ssw_RarMan_t_, ptr %41, i32 0, i32 0
  %43 = load ptr, ptr %42, align 8, !tbaa !49
  %44 = getelementptr inbounds nuw %struct.Ssw_RarPars_t_, ptr %43, i32 0, i32 1
  %45 = load i32, ptr %44, align 4, !tbaa !12
  %46 = icmp slt i32 %40, %45
  br i1 %46, label %47, label %67

47:                                               ; preds = %39
  %48 = load ptr, ptr %9, align 8, !tbaa !48
  %49 = load i32, ptr %12, align 4, !tbaa !24
  %50 = sext i32 %49 to i64
  %51 = getelementptr inbounds i64, ptr %48, i64 %50
  %52 = load i64, ptr %51, align 8, !tbaa !50
  %53 = load ptr, ptr %10, align 8, !tbaa !48
  %54 = load i32, ptr %12, align 4, !tbaa !24
  %55 = sext i32 %54 to i64
  %56 = getelementptr inbounds i64, ptr %53, i64 %55
  %57 = load i64, ptr %56, align 8, !tbaa !50
  %58 = xor i64 %52, %57
  %59 = load i64, ptr %11, align 8, !tbaa !50
  %60 = xor i64 %58, %59
  %61 = icmp ne i64 %60, 0
  br i1 %61, label %62, label %63

62:                                               ; preds = %47
  store i32 0, ptr %4, align 4
  store i32 1, ptr %13, align 4
  br label %68

63:                                               ; preds = %47
  br label %64

64:                                               ; preds = %63
  %65 = load i32, ptr %12, align 4, !tbaa !24
  %66 = add nsw i32 %65, 1
  store i32 %66, ptr %12, align 4, !tbaa !24
  br label %39, !llvm.loop !104

67:                                               ; preds = %39
  store i32 1, ptr %4, align 4
  store i32 1, ptr %13, align 4
  br label %68

68:                                               ; preds = %67, %62
  call void @llvm.lifetime.end.p0(i64 4, ptr %12) #11
  call void @llvm.lifetime.end.p0(i64 8, ptr %11) #11
  call void @llvm.lifetime.end.p0(i64 8, ptr %10) #11
  call void @llvm.lifetime.end.p0(i64 8, ptr %9) #11
  call void @llvm.lifetime.end.p0(i64 8, ptr %8) #11
  %69 = load i32, ptr %4, align 4
  ret i32 %69
}