; Function Attrs: nofree norecurse nosync nounwind memory(read, inaccessiblemem: none) uwtable
define range(i32 0, 2) i32 @Ssw_RarManObjsAreEqual(ptr noundef readonly captures(none) %0, ptr noundef readonly captures(none) %1, ptr noundef readonly captures(none) %2) #8 {
  %4 = getelementptr inbounds nuw i8, ptr %1, i64 36
  %5 = load i32, ptr %4, align 4, !tbaa !39
  %.val17 = load ptr, ptr %0, align 8, !tbaa !33
  %6 = getelementptr i8, ptr %0, i64 40
  %.val18 = load ptr, ptr %6, align 8, !tbaa !34
  %7 = getelementptr i8, ptr %.val17, i64 4
  %.val17.val = load i32, ptr %7, align 4, !tbaa !10
  %8 = mul nsw i32 %.val17.val, %5
  %9 = sext i32 %8 to i64
  %10 = getelementptr inbounds i64, ptr %.val18, i64 %9
  %11 = getelementptr inbounds nuw i8, ptr %2, i64 36
  %12 = load i32, ptr %11, align 4, !tbaa !39
  %13 = mul nsw i32 %12, %.val17.val
  %14 = sext i32 %13 to i64
  %15 = getelementptr inbounds i64, ptr %.val18, i64 %14
  %16 = getelementptr inbounds nuw i8, ptr %1, i64 24
  %17 = load i64, ptr %16, align 8
  %18 = getelementptr inbounds nuw i8, ptr %2, i64 24
  %19 = load i64, ptr %18, align 8
  %20 = xor i64 %19, %17
  %21 = shl i64 %20, 60
  %sext = ashr i64 %21, 63
  %22 = icmp sgt i32 %.val17.val, 0
  br i1 %22, label %.lr.ph.preheader, label %._crit_edge

.lr.ph.preheader:                                 ; preds = %3
  %wide.trip.count = zext nneg i32 %.val17.val to i64
  br label %.lr.ph

23:                                               ; preds = %.lr.ph
  %indvars.iv.next = add nuw nsw i64 %indvars.iv, 1
  %exitcond.not = icmp eq i64 %indvars.iv.next, %wide.trip.count
  br i1 %exitcond.not, label %._crit_edge, label %.lr.ph, !llvm.loop !89

.lr.ph:                                           ; preds = %.lr.ph.preheader, %23
  %indvars.iv = phi i64 [ 0, %.lr.ph.preheader ], [ %indvars.iv.next, %23 ]
  %24 = getelementptr inbounds nuw i64, ptr %10, i64 %indvars.iv
  %25 = load i64, ptr %24, align 8, !tbaa !40
  %26 = getelementptr inbounds nuw i64, ptr %15, i64 %indvars.iv
  %27 = load i64, ptr %26, align 8, !tbaa !40
  %28 = xor i64 %27, %25
  %.not = icmp eq i64 %28, %sext
  br i1 %.not, label %23, label %._crit_edge

._crit_edge:                                      ; preds = %.lr.ph, %23, %3
  %.015 = phi i32 [ 1, %3 ], [ 1, %23 ], [ 0, %.lr.ph ]
  ret i32 %.015
}